target datalayout = "e-m:e-p270:32:32-p271:32:32-p272:64:64-i64:64-i128:128-f80:128-n8:16:32:64-S128"
target triple = "x86_64-unknown-linux-gnu"

%"class.node::MemoryRetainer" = type { ptr }
%"class.node::HistogramImpl" = type { %"class.std::shared_ptr" }
%"class.std::shared_ptr" = type { %"class.std::__shared_ptr" }
%"class.std::__shared_ptr" = type { ptr, %"class.std::__shared_count" }
%"class.std::__shared_count" = type { ptr }
%"class.v8::IndirectHandleBase" = type { ptr }
%struct.uv_timer_s = type { ptr, ptr, i32, ptr, %struct.uv__queue, %union.anon, ptr, i32, ptr, [3 x ptr], i64, i64, i64 }
%struct.uv__queue = type { ptr, ptr }
%union.anon = type { [4 x ptr] }
%"class.node::ListNode" = type { ptr, ptr }
%"class.std::_Function_base" = type { %"union.std::_Any_data", ptr }
%"union.std::_Any_data" = type { %"union.std::_Nocopy_types" }
%"union.std::_Nocopy_types" = type { { i64, i64 } }
%"class.node::IntervalHistogram" = type { %"class.node::HandleWrap", %"class.node::HistogramImpl", i8, i32, %"class.std::function.384", %struct.uv_timer_s }
%"class.node::HandleWrap" = type { %"class.node::AsyncWrap", i32, %"class.node::ListNode", ptr }
%"class.node::AsyncWrap" = type { %"class.node::BaseObject", i32, i8, double, double }
%"class.node::BaseObject" = type { %"class.node::MemoryRetainer", %"class.v8::Global", ptr, ptr }
%"class.v8::Global" = type { %"class.v8::PersistentBase" }
%"class.v8::PersistentBase" = type { %"class.v8::IndirectHandleBase" }
%"class.std::function.384" = type { %"class.std::_Function_base", ptr }

; Function Attrs: mustprogress nounwind uwtable
define linkonce_odr dso_local noundef zeroext i1 @_ZNK4node10HandleWrap15IsHandleClosingEv(ptr noundef nonnull align 8 dereferenceable(88) %this) #4 comdat align 2 {
entry:
  %this.addr = alloca ptr, align 8
  store ptr %this, ptr %this.addr, align 8
  %this1 = load ptr, ptr %this.addr, align 8
  %state_ = getelementptr inbounds %"class.node::HandleWrap", ptr %this1, i32 0, i32 1
  %0 = load i32, ptr %state_, align 8
  %cmp = icmp eq i32 %0, 1
  br i1 %cmp, label %lor.end, label %lor.rhs

lor.rhs:                                          ; preds = %entry
  %state_2 = getelementptr inbounds %"class.node::HandleWrap", ptr %this1, i32 0, i32 1
  %1 = load i32, ptr %state_2, align 8
  %cmp3 = icmp eq i32 %1, 2
  br label %lor.end

lor.end:                                          ; preds = %lor.rhs, %entry
  %2 = phi i1 [ true, %entry ], [ %cmp3, %lor.rhs ]
  ret i1 %2
}

; Function Attrs: mustprogress nounwind uwtable
define dso_local void @_ZN4node17IntervalHistogram6OnStopEv(ptr noundef nonnull align 8 dereferenceable(296) %this) #4 align 2 {
entry:
  %this.addr = alloca ptr, align 8
  store ptr %this, ptr %this.addr, align 8
  %this1 = load ptr, ptr %this.addr, align 8
  %enabled_ = getelementptr inbounds %"class.node::IntervalHistogram", ptr %this1, i32 0, i32 2
  %0 = load i8, ptr %enabled_, align 8
  %tobool = trunc i8 %0 to i1
  br i1 %tobool, label %lor.lhs.false, label %if.then

lor.lhs.false:                                    ; preds = %entry
  %call = call noundef zeroext i1 @_ZNK4node10HandleWrap15IsHandleClosingEv(ptr noundef nonnull align 8 dereferenceable(88) %this1)
  br i1 %call, label %if.then, label %if.end

if.then:                                          ; preds = %lor.lhs.false, %entry
  br label %return

if.end:                                           ; preds = %lor.lhs.false
  %enabled_2 = getelementptr inbounds %"class.node::IntervalHistogram", ptr %this1, i32 0, i32 2
  store i8 0, ptr %enabled_2, align 8
  %timer_ = getelementptr inbounds %"class.node::IntervalHistogram", ptr %this1, i32 0, i32 5
  %call3 = call i32 @uv_timer_stop(ptr noundef %timer_)
  br label %return

return:                                           ; preds = %if.end, %if.then
  ret void
}