; Function Attrs: mustprogress nounwind uwtable
define dso_local void @_ZN4node17IntervalHistogram6OnStopEv(ptr noundef nonnull align 8 dereferenceable(296) %this) local_unnamed_addr #3 align 2 {
entry:
  %enabled_ = getelementptr inbounds i8, ptr %this, i64 104
  %0 = load i8, ptr %enabled_, align 8
  %1 = and i8 %0, 1
  %tobool.not = icmp eq i8 %1, 0
  br i1 %tobool.not, label %return, label %lor.lhs.false

lor.lhs.false:                                    ; preds = %entry
  %state_.i = getelementptr inbounds i8, ptr %this, i64 56
  %2 = load i32, ptr %state_.i, align 8
  %3 = add i32 %2, -1
  %spec.select.i = icmp ult i32 %3, 2
  br i1 %spec.select.i, label %return, label %if.end

if.end:                                           ; preds = %lor.lhs.false
  store i8 0, ptr %enabled_, align 8
  %timer_ = getelementptr inbounds i8, ptr %this, i64 144
  %call3 = tail call i32 @uv_timer_stop(ptr noundef nonnull %timer_) #15
  br label %return

return:                                           ; preds = %entry, %lor.lhs.false, %if.end
  ret void
}